target datalayout = "e-m:e-p270:32:32-p271:32:32-p272:64:64-i64:64-i128:128-f80:128-n8:16:32:64-S128"
target triple = "x86_64-pc-linux-gnu"

%"class.std::vector" = type { %"struct.std::_Vector_base" }
%"struct.std::_Vector_base" = type { %"struct.std::_Vector_base<pxrInternal_v0_24__pxrReserved__::TfToken, std::allocator<pxrInternal_v0_24__pxrReserved__::TfToken>>::_Vector_impl" }
%"struct.std::_Vector_base<pxrInternal_v0_24__pxrReserved__::TfToken, std::allocator<pxrInternal_v0_24__pxrReserved__::TfToken>>::_Vector_impl" = type { %"struct.std::_Vector_base<pxrInternal_v0_24__pxrReserved__::TfToken, std::allocator<pxrInternal_v0_24__pxrReserved__::TfToken>>::_Vector_impl_data" }
%"struct.std::_Vector_base<pxrInternal_v0_24__pxrReserved__::TfToken, std::allocator<pxrInternal_v0_24__pxrReserved__::TfToken>>::_Vector_impl_data" = type { ptr, ptr, ptr }
%"class.pxrInternal_v0_24__pxrReserved__::TfToken" = type { %"class.pxrInternal_v0_24__pxrReserved__::TfPointerAndBits" }
%"class.pxrInternal_v0_24__pxrReserved__::TfPointerAndBits" = type { ptr }
%"class.pxrInternal_v0_24__pxrReserved__::SdfPath" = type { %"struct.pxrInternal_v0_24__pxrReserved__::Sdf_PathNodeHandleImpl", %"struct.pxrInternal_v0_24__pxrReserved__::Sdf_PathNodeHandleImpl.3" }
%"struct.pxrInternal_v0_24__pxrReserved__::Sdf_PathNodeHandleImpl" = type { %"struct.pxrInternal_v0_24__pxrReserved__::Sdf_Pool<pxrInternal_v0_24__pxrReserved__::Sdf_PathPrimTag, 24, 8>::Handle" }
%"struct.pxrInternal_v0_24__pxrReserved__::Sdf_Pool<pxrInternal_v0_24__pxrReserved__::Sdf_PathPrimTag, 24, 8>::Handle" = type { i32 }
%"struct.pxrInternal_v0_24__pxrReserved__::Sdf_PathNodeHandleImpl.3" = type { %"struct.pxrInternal_v0_24__pxrReserved__::Sdf_Pool<pxrInternal_v0_24__pxrReserved__::Sdf_PathPropTag, 24, 8>::Handle" }
%"struct.pxrInternal_v0_24__pxrReserved__::Sdf_Pool<pxrInternal_v0_24__pxrReserved__::Sdf_PathPropTag, 24, 8>::Handle" = type { i32 }
%"class.pxrInternal_v0_24__pxrReserved__::UsdObject" = type { i32, %"class.pxrInternal_v0_24__pxrReserved__::Usd_PrimDataHandle", %"class.pxrInternal_v0_24__pxrReserved__::SdfPath", %"class.pxrInternal_v0_24__pxrReserved__::TfToken" }
%"class.pxrInternal_v0_24__pxrReserved__::Usd_PrimDataHandle" = type { %"class.pxrInternal_v0_24__pxrReserved__::TfDelegatedCountPtr" }
%"class.pxrInternal_v0_24__pxrReserved__::TfDelegatedCountPtr" = type { ptr }
%"class.pxrInternal_v0_24__pxrReserved__::UsdPrimTypeInfo" = type { %"struct.pxrInternal_v0_24__pxrReserved__::UsdPrimTypeInfo::_TypeId", %"class.pxrInternal_v0_24__pxrReserved__::TfType", %"class.pxrInternal_v0_24__pxrReserved__::TfToken", %"struct.std::atomic.519", %"class.std::unique_ptr.521" }
%"struct.pxrInternal_v0_24__pxrReserved__::UsdPrimTypeInfo::_TypeId" = type { %"class.pxrInternal_v0_24__pxrReserved__::TfToken", %"class.pxrInternal_v0_24__pxrReserved__::TfToken", %"class.std::vector" }
%"class.pxrInternal_v0_24__pxrReserved__::TfType" = type { ptr }
%"struct.std::atomic.519" = type { %"struct.std::__atomic_base.520" }
%"struct.std::__atomic_base.520" = type { ptr }
%"class.std::unique_ptr.521" = type { %"struct.std::__uniq_ptr_data.522" }
%"struct.std::__uniq_ptr_data.522" = type { %"class.std::__uniq_ptr_impl.523" }
%"class.std::__uniq_ptr_impl.523" = type { %"class.std::tuple.524" }
%"class.std::tuple.524" = type { %"struct.std::_Tuple_impl.525" }
%"struct.std::_Tuple_impl.525" = type { %"struct.std::_Head_base.528" }
%"struct.std::_Head_base.528" = type { ptr }
%"class.std::bitset" = type { %"struct.std::_Base_bitset" }
%"struct.std::_Base_bitset" = type { i64 }
%"class.pxrInternal_v0_24__pxrReserved__::Usd_PrimData" = type { ptr, ptr, %"class.pxrInternal_v0_24__pxrReserved__::SdfPath", ptr, ptr, %"class.pxrInternal_v0_24__pxrReserved__::TfPointerAndBits.864", %"struct.std::atomic.565", %"class.std::bitset" }
%"class.pxrInternal_v0_24__pxrReserved__::TfPointerAndBits.864" = type { ptr }
%"struct.std::atomic.565" = type { %"struct.std::__atomic_base.566" }
%"struct.std::__atomic_base.566" = type { i64 }

; Function Attrs: mustprogress nounwind uwtable
define linkonce_odr noundef i64 @_ZNSt12_Base_bitsetILm1EE11_S_whichbitEm(i64 noundef %0) #2 comdat align 2 {
  %2 = alloca i64, align 8
  store i64 %0, ptr %2, align 8
  %3 = load i64, ptr %2, align 8
  %4 = urem i64 %3, 64
  ret i64 %4
}

; Function Attrs: mustprogress nounwind uwtable
define linkonce_odr noundef i64 @_ZNSt12_Base_bitsetILm1EE10_S_maskbitEm(i64 noundef %0) #2 comdat align 2 {
  %2 = alloca i64, align 8
  store i64 %0, ptr %2, align 8
  %3 = load i64, ptr %2, align 8
  %4 = call noundef i64 @_ZNSt12_Base_bitsetILm1EE11_S_whichbitEm(i64 noundef %3) #7
  %5 = shl i64 1, %4
  ret i64 %5
}

; Function Attrs: mustprogress nounwind uwtable
define linkonce_odr noundef i64 @_ZNKSt12_Base_bitsetILm1EE10_M_getwordEm(ptr noundef nonnull align 8 dereferenceable(8) %0, i64 noundef %1) #2 comdat align 2 {
  %3 = alloca ptr, align 8
  %4 = alloca i64, align 8
  store ptr %0, ptr %3, align 8
  store i64 %1, ptr %4, align 8
  %5 = load ptr, ptr %3, align 8
  %6 = getelementptr inbounds nuw %"struct.std::_Base_bitset", ptr %5, i32 0, i32 0
  %7 = load i64, ptr %6, align 8
  ret i64 %7
}

; Function Attrs: mustprogress nounwind uwtable
define linkonce_odr noundef zeroext i1 @_ZNKSt6bitsetILm15EE15_Unchecked_testEm(ptr noundef nonnull align 8 dereferenceable(8) %0, i64 noundef %1) #2 comdat align 2 {
  %3 = alloca ptr, align 8
  %4 = alloca i64, align 8
  store ptr %0, ptr %3, align 8
  store i64 %1, ptr %4, align 8
  %5 = load ptr, ptr %3, align 8
  %6 = load i64, ptr %4, align 8
  %7 = call noundef i64 @_ZNKSt12_Base_bitsetILm1EE10_M_getwordEm(ptr noundef nonnull align 8 dereferenceable(8) %5, i64 noundef %6) #7
  %8 = load i64, ptr %4, align 8
  %9 = call noundef i64 @_ZNSt12_Base_bitsetILm1EE10_S_maskbitEm(i64 noundef %8) #7
  %10 = and i64 %7, %9
  %11 = icmp ne i64 %10, 0
  ret i1 %11
}

; Function Attrs: mustprogress nounwind uwtable
define linkonce_odr noundef zeroext i1 @_ZNKSt6bitsetILm15EEixEm(ptr noundef nonnull align 8 dereferenceable(8) %0, i64 noundef %1) #2 comdat align 2 {
  %3 = alloca ptr, align 8
  %4 = alloca i64, align 8
  store ptr %0, ptr %3, align 8
  store i64 %1, ptr %4, align 8
  %5 = load ptr, ptr %3, align 8
  %6 = load i64, ptr %4, align 8
  %7 = call noundef zeroext i1 @_ZNKSt6bitsetILm15EE15_Unchecked_testEm(ptr noundef nonnull align 8 dereferenceable(8) %5, i64 noundef %6) #7
  ret i1 %7
}

; Function Attrs: mustprogress uwtable
define linkonce_odr noundef zeroext i1 @_ZNK32pxrInternal_v0_24__pxrReserved__12Usd_PrimData7_IsDeadEv(ptr noundef nonnull align 8 dereferenceable(64) %0) #0 comdat align 2 {
  %2 = alloca ptr, align 8
  store ptr %0, ptr %2, align 8
  %3 = load ptr, ptr %2, align 8
  %4 = getelementptr inbounds nuw %"class.pxrInternal_v0_24__pxrReserved__::Usd_PrimData", ptr %3, i32 0, i32 7
  %5 = call noundef zeroext i1 @_ZNKSt6bitsetILm15EEixEm(ptr noundef nonnull align 8 dereferenceable(8) %4, i64 noundef 11)
  ret i1 %5
}

; Function Attrs: mustprogress nounwind uwtable
define linkonce_odr noundef i64 @_ZNK32pxrInternal_v0_24__pxrReserved__16TfPointerAndBitsIKNS_7TfToken4_RepEE6_AsIntEPS3_(ptr noundef nonnull align 8 dereferenceable(8) %0, ptr noundef %1) #2 comdat align 2 {
  %3 = alloca ptr, align 8
  %4 = alloca ptr, align 8
  store ptr %0, ptr %3, align 8
  store ptr %1, ptr %4, align 8
  %5 = load ptr, ptr %4, align 8
  %6 = ptrtoint ptr %5 to i64
  ret i64 %6
}

; Function Attrs: mustprogress nounwind uwtable
define linkonce_odr noundef nonnull align 8 dereferenceable(8) ptr @_ZNK32pxrInternal_v0_24__pxrReserved__15UsdPrimTypeInfo11GetTypeNameEv(ptr noundef nonnull align 8 dereferenceable(72) %0) #2 comdat align 2 {
  %2 = alloca ptr, align 8
  store ptr %0, ptr %2, align 8
  %3 = load ptr, ptr %2, align 8
  %4 = getelementptr inbounds nuw %"class.pxrInternal_v0_24__pxrReserved__::UsdPrimTypeInfo", ptr %3, i32 0, i32 0
  %5 = getelementptr inbounds nuw %"struct.pxrInternal_v0_24__pxrReserved__::UsdPrimTypeInfo::_TypeId", ptr %4, i32 0, i32 0
  ret ptr %5
}

; Function Attrs: mustprogress uwtable
define linkonce_odr noundef zeroext i1 @_ZN32pxrInternal_v0_24__pxrReserved__10Usd_IsDeadEPKNS_12Usd_PrimDataE(ptr noundef %0) #0 comdat {
  %2 = alloca ptr, align 8
  store ptr %0, ptr %2, align 8
  %3 = load ptr, ptr %2, align 8
  %4 = call noundef zeroext i1 @_ZNK32pxrInternal_v0_24__pxrReserved__12Usd_PrimData7_IsDeadEv(ptr noundef nonnull align 8 dereferenceable(64) %3)
  ret i1 %4
}

; Function Attrs: mustprogress nounwind uwtable
define linkonce_odr noundef ptr @_ZNK32pxrInternal_v0_24__pxrReserved__19TfDelegatedCountPtrIKNS_12Usd_PrimDataEE3getEv(ptr noundef nonnull align 8 dereferenceable(8) %0) #2 comdat align 2 {
  %2 = alloca ptr, align 8
  store ptr %0, ptr %2, align 8
  %3 = load ptr, ptr %2, align 8
  %4 = getelementptr inbounds nuw %"class.pxrInternal_v0_24__pxrReserved__::TfDelegatedCountPtr", ptr %3, i32 0, i32 0
  %5 = load ptr, ptr %4, align 8
  ret ptr %5
}

; Function Attrs: mustprogress uwtable
define linkonce_odr noundef ptr @_ZN32pxrInternal_v0_24__pxrReserved__17UsdSchemaRegistry14FindSchemaInfoINS_16UsdGeomImageableEEEPKNS0_10SchemaInfoEv() #0 comdat align 2 {
  %1 = call noundef nonnull align 8 dereferenceable(8) ptr @_ZN32pxrInternal_v0_24__pxrReserved__16UsdGeomImageable16_GetStaticTfTypeEv()
  %2 = call noundef ptr @_ZN32pxrInternal_v0_24__pxrReserved__17UsdSchemaRegistry14FindSchemaInfoERKNS_6TfTypeE(ptr noundef nonnull align 8 dereferenceable(8) %1)
  ret ptr %2
}

; Function Attrs: mustprogress nounwind uwtable
define linkonce_odr noundef i64 @_ZNK32pxrInternal_v0_24__pxrReserved__16TfPointerAndBitsIKNS_7TfToken4_RepEE10GetLiteralEv(ptr noundef nonnull align 8 dereferenceable(8) %0) #2 comdat align 2 {
  %2 = alloca ptr, align 8
  store ptr %0, ptr %2, align 8
  %3 = load ptr, ptr %2, align 8
  %4 = getelementptr inbounds nuw %"class.pxrInternal_v0_24__pxrReserved__::TfPointerAndBits", ptr %3, i32 0, i32 0
  %5 = load ptr, ptr %4, align 8
  %6 = call noundef i64 @_ZNK32pxrInternal_v0_24__pxrReserved__16TfPointerAndBitsIKNS_7TfToken4_RepEE6_AsIntEPS3_(ptr noundef nonnull align 8 dereferenceable(8) %3, ptr noundef %5) #7
  ret i64 %6
}

; Function Attrs: mustprogress uwtable
define linkonce_odr noundef nonnull align 8 dereferenceable(8) ptr @_ZNK32pxrInternal_v0_24__pxrReserved__12Usd_PrimData11GetTypeNameEv(ptr noundef nonnull align 8 dereferenceable(64) %0) #0 comdat align 2 {
  %2 = alloca ptr, align 8
  store ptr %0, ptr %2, align 8
  %3 = load ptr, ptr %2, align 8
  %4 = getelementptr inbounds nuw %"class.pxrInternal_v0_24__pxrReserved__::Usd_PrimData", ptr %3, i32 0, i32 3
  %5 = load ptr, ptr %4, align 8
  %6 = call noundef nonnull align 8 dereferenceable(8) ptr @_ZNK32pxrInternal_v0_24__pxrReserved__15UsdPrimTypeInfo11GetTypeNameEv(ptr noundef nonnull align 8 dereferenceable(72) %5)
  ret ptr %6
}

; Function Attrs: mustprogress uwtable
define linkonce_odr noundef ptr @_ZNK32pxrInternal_v0_24__pxrReserved__18Usd_PrimDataHandleptEv(ptr noundef nonnull align 8 dereferenceable(8) %0) #0 comdat align 2 {
  %2 = alloca ptr, align 8
  %3 = alloca ptr, align 8
  store ptr %0, ptr %2, align 8
  %4 = load ptr, ptr %2, align 8
  %5 = getelementptr inbounds nuw %"class.pxrInternal_v0_24__pxrReserved__::Usd_PrimDataHandle", ptr %4, i32 0, i32 0
  %6 = call noundef ptr @_ZNK32pxrInternal_v0_24__pxrReserved__19TfDelegatedCountPtrIKNS_12Usd_PrimDataEE3getEv(ptr noundef nonnull align 8 dereferenceable(8) %5) #7
  store ptr %6, ptr %3, align 8
  %7 = load ptr, ptr %3, align 8
  %8 = icmp ne ptr %7, null
  br i1 %8, label %9, label %12

9:                                                ; preds = %1
  %10 = load ptr, ptr %3, align 8
  %11 = call noundef zeroext i1 @_ZN32pxrInternal_v0_24__pxrReserved__10Usd_IsDeadEPKNS_12Usd_PrimDataE(ptr noundef %10)
  br i1 %11, label %12, label %14

12:                                               ; preds = %9, %1
  %13 = load ptr, ptr %3, align 8
  call void @_ZN32pxrInternal_v0_24__pxrReserved__31Usd_ThrowExpiredPrimAccessErrorEPKNS_12Usd_PrimDataE(ptr noundef %13)
  br label %14

14:                                               ; preds = %12, %9
  %15 = load ptr, ptr %3, align 8
  ret ptr %15
}

; Function Attrs: mustprogress nounwind uwtable
define linkonce_odr noundef nonnull align 8 dereferenceable(8) ptr @_ZNK32pxrInternal_v0_24__pxrReserved__9UsdObject5_PrimEv(ptr noundef nonnull align 8 dereferenceable(32) %0) #2 comdat align 2 {
  %2 = alloca ptr, align 8
  store ptr %0, ptr %2, align 8
  %3 = load ptr, ptr %2, align 8
  %4 = getelementptr inbounds nuw %"class.pxrInternal_v0_24__pxrReserved__::UsdObject", ptr %3, i32 0, i32 1
  ret ptr %4
}

; Function Attrs: mustprogress uwtable
define linkonce_odr noundef ptr @_ZN32pxrInternal_v0_24__pxrReserved__17UsdSchemaRegistry14FindSchemaInfoINS_21UsdRenderSettingsBaseEEEPKNS0_10SchemaInfoEv() #0 comdat align 2 {
  %1 = call noundef nonnull align 8 dereferenceable(8) ptr @_ZN32pxrInternal_v0_24__pxrReserved__21UsdRenderSettingsBase16_GetStaticTfTypeEv()
  %2 = call noundef ptr @_ZN32pxrInternal_v0_24__pxrReserved__17UsdSchemaRegistry14FindSchemaInfoERKNS_6TfTypeE(ptr noundef nonnull align 8 dereferenceable(8) %1)
  ret ptr %2
}

; Function Attrs: mustprogress uwtable
define linkonce_odr noundef zeroext i1 @_ZNK32pxrInternal_v0_24__pxrReserved__7UsdPrim3IsAINS_16UsdGeomImageableEEEbv(ptr noundef nonnull align 8 dereferenceable(32) %0) #0 comdat align 2 {
  %2 = alloca ptr, align 8
  store ptr %0, ptr %2, align 8
  %3 = load ptr, ptr %2, align 8
  %4 = call noundef ptr @_ZN32pxrInternal_v0_24__pxrReserved__17UsdSchemaRegistry14FindSchemaInfoINS_16UsdGeomImageableEEEPKNS0_10SchemaInfoEv()
  %5 = call noundef zeroext i1 @_ZNK32pxrInternal_v0_24__pxrReserved__7UsdPrim4_IsAEPKNS_17UsdSchemaRegistry10SchemaInfoE(ptr noundef nonnull align 8 dereferenceable(32) %3, ptr noundef %4)
  ret i1 %5
}

; Function Attrs: mustprogress nounwind uwtable
define linkonce_odr noundef zeroext i1 @_ZNK32pxrInternal_v0_24__pxrReserved__7TfToken7IsEmptyEv(ptr noundef nonnull align 8 dereferenceable(8) %0) #2 comdat align 2 {
  %2 = alloca ptr, align 8
  store ptr %0, ptr %2, align 8
  %3 = load ptr, ptr %2, align 8
  %4 = getelementptr inbounds nuw %"class.pxrInternal_v0_24__pxrReserved__::TfToken", ptr %3, i32 0, i32 0
  %5 = call noundef i64 @_ZNK32pxrInternal_v0_24__pxrReserved__16TfPointerAndBitsIKNS_7TfToken4_RepEE10GetLiteralEv(ptr noundef nonnull align 8 dereferenceable(8) %4) #7
  %6 = icmp eq i64 %5, 0
  ret i1 %6
}

; Function Attrs: mustprogress uwtable
define linkonce_odr noundef nonnull align 8 dereferenceable(8) ptr @_ZNK32pxrInternal_v0_24__pxrReserved__7UsdPrim11GetTypeNameEv(ptr noundef nonnull align 8 dereferenceable(32) %0) #0 comdat align 2 {
  %2 = alloca ptr, align 8
  store ptr %0, ptr %2, align 8
  %3 = load ptr, ptr %2, align 8
  %4 = call noundef nonnull align 8 dereferenceable(8) ptr @_ZNK32pxrInternal_v0_24__pxrReserved__9UsdObject5_PrimEv(ptr noundef nonnull align 8 dereferenceable(32) %3)
  %5 = call noundef ptr @_ZNK32pxrInternal_v0_24__pxrReserved__18Usd_PrimDataHandleptEv(ptr noundef nonnull align 8 dereferenceable(8) %4)
  %6 = call noundef nonnull align 8 dereferenceable(8) ptr @_ZNK32pxrInternal_v0_24__pxrReserved__12Usd_PrimData11GetTypeNameEv(ptr noundef nonnull align 8 dereferenceable(64) %5)
  ret ptr %6
}

; Function Attrs: mustprogress uwtable
define linkonce_odr noundef zeroext i1 @_ZNK32pxrInternal_v0_24__pxrReserved__7UsdPrim3IsAINS_21UsdRenderSettingsBaseEEEbv(ptr noundef nonnull align 8 dereferenceable(32) %0) #0 comdat align 2 {
  %2 = alloca ptr, align 8
  store ptr %0, ptr %2, align 8
  %3 = load ptr, ptr %2, align 8
  %4 = call noundef ptr @_ZN32pxrInternal_v0_24__pxrReserved__17UsdSchemaRegistry14FindSchemaInfoINS_21UsdRenderSettingsBaseEEEPKNS0_10SchemaInfoEv()
  %5 = call noundef zeroext i1 @_ZNK32pxrInternal_v0_24__pxrReserved__7UsdPrim4_IsAEPKNS_17UsdSchemaRegistry10SchemaInfoE(ptr noundef nonnull align 8 dereferenceable(32) %3, ptr noundef %4)
  ret i1 %5
}

; Function Attrs: mustprogress uwtable
define noundef zeroext i1 @_ZN32pxrInternal_v0_24__pxrReserved__21UsdImagingPrimAdapter17ShouldCullSubtreeERKNS_7UsdPrimE(ptr noundef nonnull align 8 dereferenceable(32) %0) #0 align 2 {
  %2 = alloca i1, align 1
  %3 = alloca ptr, align 8
  store ptr %0, ptr %3, align 8
  %4 = load ptr, ptr %3, align 8
  %5 = call noundef zeroext i1 @_ZNK32pxrInternal_v0_24__pxrReserved__7UsdPrim3IsAINS_21UsdRenderSettingsBaseEEEbv(ptr noundef nonnull align 8 dereferenceable(32) %4)
  br i1 %5, label %6, label %11

6:                                                ; preds = %1
  %7 = load ptr, ptr %3, align 8
  %8 = call noundef nonnull align 8 dereferenceable(8) ptr @_ZNK32pxrInternal_v0_24__pxrReserved__7UsdPrim11GetTypeNameEv(ptr noundef nonnull align 8 dereferenceable(32) %7)
  %9 = call noundef zeroext i1 @_ZNK32pxrInternal_v0_24__pxrReserved__7TfToken7IsEmptyEv(ptr noundef nonnull align 8 dereferenceable(8) %8)
  br i1 %9, label %11, label %10

10:                                               ; preds = %6
  store i1 false, ptr %2, align 1
  br label %21

11:                                               ; preds = %6, %1
  %12 = load ptr, ptr %3, align 8
  %13 = call noundef zeroext i1 @_ZNK32pxrInternal_v0_24__pxrReserved__7UsdPrim3IsAINS_16UsdGeomImageableEEEbv(ptr noundef nonnull align 8 dereferenceable(32) %12)
  br i1 %13, label %19, label %14

14:                                               ; preds = %11
  %15 = load ptr, ptr %3, align 8
  %16 = call noundef nonnull align 8 dereferenceable(8) ptr @_ZNK32pxrInternal_v0_24__pxrReserved__7UsdPrim11GetTypeNameEv(ptr noundef nonnull align 8 dereferenceable(32) %15)
  %17 = call noundef zeroext i1 @_ZNK32pxrInternal_v0_24__pxrReserved__7TfToken7IsEmptyEv(ptr noundef nonnull align 8 dereferenceable(8) %16)
  %18 = xor i1 %17, true
  br label %19

19:                                               ; preds = %14, %11
  %20 = phi i1 [ false, %11 ], [ %18, %14 ]
  store i1 %20, ptr %2, align 1
  br label %21

21:                                               ; preds = %19, %10
  %22 = load i1, ptr %2, align 1
  ret i1 %22
}