; Function Attrs: mustprogress uwtable
define noundef zeroext i1 @_ZN32pxrInternal_v0_24__pxrReserved__21UsdImagingPrimAdapter17ShouldCullSubtreeERKNS_7UsdPrimE(ptr noundef nonnull align 8 dereferenceable(32) %0) local_unnamed_addr #0 align 2 {
  %2 = tail call noundef nonnull align 8 dereferenceable(8) ptr @_ZN32pxrInternal_v0_24__pxrReserved__21UsdRenderSettingsBase16_GetStaticTfTypeEv()
  %3 = tail call noundef ptr @_ZN32pxrInternal_v0_24__pxrReserved__17UsdSchemaRegistry14FindSchemaInfoERKNS_6TfTypeE(ptr noundef nonnull align 8 dereferenceable(8) %2)
  %4 = tail call noundef zeroext i1 @_ZNK32pxrInternal_v0_24__pxrReserved__7UsdPrim4_IsAEPKNS_17UsdSchemaRegistry10SchemaInfoE(ptr noundef nonnull align 8 dereferenceable(32) %0, ptr noundef %3)
  br i1 %4, label %5, label %17

5:                                                ; preds = %1
  %6 = getelementptr inbounds nuw i8, ptr %0, i64 8
  %7 = load ptr, ptr %6, align 8
  %.not.i.i = icmp eq ptr %7, null
  br i1 %.not.i.i, label %12, label %8

8:                                                ; preds = %5
  %9 = getelementptr inbounds nuw i8, ptr %7, i64 56
  %10 = load i64, ptr %9, align 8
  %11 = and i64 %10, 2048
  %.not5.i.i = icmp eq i64 %11, 0
  br i1 %.not5.i.i, label %_ZNK32pxrInternal_v0_24__pxrReserved__7UsdPrim11GetTypeNameEv.exit, label %12

12:                                               ; preds = %8, %5
  tail call void @_ZN32pxrInternal_v0_24__pxrReserved__31Usd_ThrowExpiredPrimAccessErrorEPKNS_12Usd_PrimDataE(ptr noundef %7)
  br label %_ZNK32pxrInternal_v0_24__pxrReserved__7UsdPrim11GetTypeNameEv.exit

_ZNK32pxrInternal_v0_24__pxrReserved__7UsdPrim11GetTypeNameEv.exit: ; preds = %8, %12
  %13 = getelementptr inbounds nuw i8, ptr %7, i64 24
  %14 = load ptr, ptr %13, align 8
  %15 = load ptr, ptr %14, align 8
  %16 = icmp eq ptr %15, null
  br i1 %16, label %17, label %33

17:                                               ; preds = %_ZNK32pxrInternal_v0_24__pxrReserved__7UsdPrim11GetTypeNameEv.exit, %1
  %18 = tail call noundef nonnull align 8 dereferenceable(8) ptr @_ZN32pxrInternal_v0_24__pxrReserved__16UsdGeomImageable16_GetStaticTfTypeEv()
  %19 = tail call noundef ptr @_ZN32pxrInternal_v0_24__pxrReserved__17UsdSchemaRegistry14FindSchemaInfoERKNS_6TfTypeE(ptr noundef nonnull align 8 dereferenceable(8) %18)
  %20 = tail call noundef zeroext i1 @_ZNK32pxrInternal_v0_24__pxrReserved__7UsdPrim4_IsAEPKNS_17UsdSchemaRegistry10SchemaInfoE(ptr noundef nonnull align 8 dereferenceable(32) %0, ptr noundef %19)
  br i1 %20, label %33, label %21

21:                                               ; preds = %17
  %22 = getelementptr inbounds nuw i8, ptr %0, i64 8
  %23 = load ptr, ptr %22, align 8
  %.not.i.i5 = icmp eq ptr %23, null
  br i1 %.not.i.i5, label %28, label %24

24:                                               ; preds = %21
  %25 = getelementptr inbounds nuw i8, ptr %23, i64 56
  %26 = load i64, ptr %25, align 8
  %27 = and i64 %26, 2048
  %.not5.i.i6 = icmp eq i64 %27, 0
  br i1 %.not5.i.i6, label %_ZNK32pxrInternal_v0_24__pxrReserved__7UsdPrim11GetTypeNameEv.exit7, label %28

28:                                               ; preds = %24, %21
  tail call void @_ZN32pxrInternal_v0_24__pxrReserved__31Usd_ThrowExpiredPrimAccessErrorEPKNS_12Usd_PrimDataE(ptr noundef %23)
  br label %_ZNK32pxrInternal_v0_24__pxrReserved__7UsdPrim11GetTypeNameEv.exit7

_ZNK32pxrInternal_v0_24__pxrReserved__7UsdPrim11GetTypeNameEv.exit7: ; preds = %24, %28
  %29 = getelementptr inbounds nuw i8, ptr %23, i64 24
  %30 = load ptr, ptr %29, align 8
  %31 = load ptr, ptr %30, align 8
  %32 = icmp ne ptr %31, null
  br label %33

33:                                               ; preds = %17, %_ZNK32pxrInternal_v0_24__pxrReserved__7UsdPrim11GetTypeNameEv.exit7, %_ZNK32pxrInternal_v0_24__pxrReserved__7UsdPrim11GetTypeNameEv.exit
  %.0 = phi i1 [ false, %_ZNK32pxrInternal_v0_24__pxrReserved__7UsdPrim11GetTypeNameEv.exit ], [ false, %17 ], [ %32, %_ZNK32pxrInternal_v0_24__pxrReserved__7UsdPrim11GetTypeNameEv.exit7 ]
  ret i1 %.0
}